; ModuleID = '31/1252.c'
source_filename = "31/1252.c"
target datalayout = "e-m:e-p270:32:32-p271:32:32-p272:64:64-i64:64-f80:128-n8:16:32:64-S128"
target triple = "x86_64-pc-linux-gnu"

@.str = private unnamed_addr constant [4 x i8] c"%s\0A\00", align 1

; Function Attrs: noinline nounwind uwtable
define dso_local void @main() #0 {
  %1 = alloca i32, align 4
  %2 = alloca i32, align 4
  %3 = alloca [500 x [100 x i8]], align 16
  store i32 0, i32* %1, align 4
  store i32 0, i32* %2, align 4
  store i32 0, i32* %1, align 4
  br label %4

4:                                                ; preds = %22, %0
  %5 = load i32, i32* %1, align 4
  %6 = icmp slt i32 %5, 500
  br i1 %6, label %7, label %25

7:                                                ; preds = %4
  %8 = load i32, i32* %1, align 4
  %9 = sext i32 %8 to i64
  %10 = getelementptr inbounds [500 x [100 x i8]], [500 x [100 x i8]]* %3, i64 0, i64 %9
  %11 = getelementptr inbounds [100 x i8], [100 x i8]* %10, i64 0, i64 0
  %12 = call i32 (i8*, ...) bitcast (i32 (...)* @gets to i32 (i8*, ...)*)(i8* %11)
  %13 = load i32, i32* %1, align 4
  %14 = sext i32 %13 to i64
  %15 = getelementptr inbounds [500 x [100 x i8]], [500 x [100 x i8]]* %3, i64 0, i64 %14
  %16 = getelementptr inbounds [100 x i8], [100 x i8]* %15, i64 0, i64 0
  %17 = load i8, i8* %16, align 4
  %18 = sext i8 %17 to i32
  %19 = icmp eq i32 %18, 101
  br i1 %19, label %20, label %21

20:                                               ; preds = %7
  br label %25

21:                                               ; preds = %7
  br label %22

22:                                               ; preds = %21
  %23 = load i32, i32* %1, align 4
  %24 = add nsw i32 %23, 1
  store i32 %24, i32* %1, align 4
  br label %4

25:                                               ; preds = %20, %4
  %26 = load i32, i32* %1, align 4
  %27 = sub nsw i32 %26, 1
  store i32 %27, i32* %2, align 4
  %28 = load i32, i32* %2, align 4
  store i32 %28, i32* %1, align 4
  br label %29

29:                                               ; preds = %38, %25
  %30 = load i32, i32* %1, align 4
  %31 = icmp sge i32 %30, 0
  br i1 %31, label %32, label %41

32:                                               ; preds = %29
  %33 = load i32, i32* %1, align 4
  %34 = sext i32 %33 to i64
  %35 = getelementptr inbounds [500 x [100 x i8]], [500 x [100 x i8]]* %3, i64 0, i64 %34
  %36 = getelementptr inbounds [100 x i8], [100 x i8]* %35, i64 0, i64 0
  %37 = call i32 (i8*, ...) @printf(i8* getelementptr inbounds ([4 x i8], [4 x i8]* @.str, i64 0, i64 0), i8* %36)
  br label %38

38:                                               ; preds = %32
  %39 = load i32, i32* %1, align 4
  %40 = add nsw i32 %39, -1
  store i32 %40, i32* %1, align 4
  br label %29

41:                                               ; preds = %29
  ret void
}

declare dso_local i32 @gets(...) #1

declare dso_local i32 @printf(i8*, ...) #1


!llvm.module.flags = !{!0}
!llvm.ident = !{!1}

!0 = !{i32 1, !"wchar_size", i32 4}
!1 = !{!"clang version 10.0.0-4ubuntu1 "}
