; ModuleID = 'source-C-CXX/30/1252.c'
source_filename = "source-C-CXX/30/1252.c"
target datalayout = "e-m:e-p270:32:32-p271:32:32-p272:64:64-i64:64-f80:128-n8:16:32:64-S128"
target triple = "x86_64-pc-linux-gnu"

; Function Attrs: nounwind sspstrong uwtable
define dso_local void @main() local_unnamed_addr #0 {
  %1 = alloca [500 x [100 x i8]], align 16
  %2 = getelementptr inbounds [500 x [100 x i8]], [500 x [100 x i8]]* %1, i64 0, i64 0, i64 0
  call void @llvm.lifetime.start.p0i8(i64 50000, i8* nonnull %2) #4
  br label %3

3:                                                ; preds = %0, %9
  %4 = phi i64 [ 0, %0 ], [ %10, %9 ]
  %5 = getelementptr inbounds [500 x [100 x i8]], [500 x [100 x i8]]* %1, i64 0, i64 %4, i64 0
  %6 = call i32 (i8*, ...) bitcast (i32 (...)* @gets to i32 (i8*, ...)*)(i8* nonnull %5) #4
  %7 = load i8, i8* %5, align 4, !tbaa !5
  %8 = icmp eq i8 %7, 101
  br i1 %8, label %12, label %9

9:                                                ; preds = %3
  %10 = add nuw nsw i64 %4, 1
  %11 = icmp eq i64 %10, 500
  br i1 %11, label %15, label %3, !llvm.loop !8

12:                                               ; preds = %3
  %13 = trunc i64 %4 to i32
  %14 = icmp sgt i32 %13, 0
  br i1 %14, label %15, label %24

15:                                               ; preds = %9, %12
  %16 = phi i64 [ %4, %12 ], [ 500, %9 ]
  %17 = and i64 %16, 4294967295
  br label %18

18:                                               ; preds = %15, %18
  %19 = phi i64 [ %17, %15 ], [ %20, %18 ]
  %20 = add nsw i64 %19, -1
  %21 = getelementptr inbounds [500 x [100 x i8]], [500 x [100 x i8]]* %1, i64 0, i64 %20, i64 0
  %22 = call i32 @puts(i8* nonnull %21)
  %23 = icmp sgt i64 %19, 1
  br i1 %23, label %18, label %24, !llvm.loop !10

24:                                               ; preds = %18, %12
  call void @llvm.lifetime.end.p0i8(i64 50000, i8* nonnull %2) #4
  ret void
}

; Function Attrs: argmemonly mustprogress nofree nosync nounwind willreturn
declare void @llvm.lifetime.start.p0i8(i64 immarg, i8* nocapture) #1

declare i32 @gets(...) local_unnamed_addr #2

; Function Attrs: argmemonly mustprogress nofree nosync nounwind willreturn
declare void @llvm.lifetime.end.p0i8(i64 immarg, i8* nocapture) #1

; Function Attrs: nofree nounwind
declare noundef i32 @puts(i8* nocapture noundef readonly) local_unnamed_addr #3


!llvm.module.flags = !{!0, !1, !2, !3}
!llvm.ident = !{!4}

!0 = !{i32 1, !"wchar_size", i32 4}
!1 = !{i32 7, !"PIC Level", i32 2}
!2 = !{i32 7, !"PIE Level", i32 2}
!3 = !{i32 7, !"uwtable", i32 1}
!4 = !{!"clang version 13.0.0"}
!5 = !{!6, !6, i64 0}
!6 = !{!"omnipotent char", !7, i64 0}
!7 = !{!"Simple C/C++ TBAA"}
!8 = distinct !{!8, !9}
!9 = !{!"llvm.loop.mustprogress"}
!10 = distinct !{!10, !9}
